; ModuleID = '43/236.c'
source_filename = "43/236.c"
target datalayout = "e-m:e-p270:32:32-p271:32:32-p272:64:64-i64:64-f80:128-n8:16:32:64-S128"
target triple = "x86_64-pc-linux-gnu"

@.str = private unnamed_addr constant [3 x i8] c"%d\00", align 1
@.str.1 = private unnamed_addr constant [7 x i8] c"%d %d\0A\00", align 1

; Function Attrs: noinline nounwind uwtable
define dso_local i32 @main() #0 {
  %1 = alloca i32, align 4
  %2 = alloca i32, align 4
  %3 = alloca i32, align 4
  %4 = alloca i32, align 4
  %5 = alloca i32, align 4
  %6 = alloca i32, align 4
  %7 = alloca i32, align 4
  store i32 0, i32* %1, align 4
  %8 = call i32 (i8*, ...) @__isoc99_scanf(i8* getelementptr inbounds ([3 x i8], [3 x i8]* @.str, i64 0, i64 0), i32* %2)
  store i32 3, i32* %3, align 4
  br label %9

9:                                                ; preds = %61, %0
  %10 = load i32, i32* %3, align 4
  %11 = load i32, i32* %2, align 4
  %12 = sdiv i32 %11, 2
  %13 = icmp sle i32 %10, %12
  br i1 %13, label %14, label %64

14:                                               ; preds = %9
  store i32 1, i32* %5, align 4
  %15 = load i32, i32* %2, align 4
  %16 = load i32, i32* %3, align 4
  %17 = sub nsw i32 %15, %16
  store i32 %17, i32* %6, align 4
  store i32 2, i32* %4, align 4
  br label %18

18:                                               ; preds = %32, %14
  %19 = load i32, i32* %4, align 4
  %20 = sitofp i32 %19 to double
  %21 = load i32, i32* %3, align 4
  %22 = sitofp i32 %21 to double
  %23 = call double @sqrt(double %22) #3
  %24 = fcmp ole double %20, %23
  br i1 %24, label %25, label %35

25:                                               ; preds = %18
  %26 = load i32, i32* %3, align 4
  %27 = load i32, i32* %4, align 4
  %28 = srem i32 %26, %27
  %29 = icmp eq i32 %28, 0
  br i1 %29, label %30, label %31

30:                                               ; preds = %25
  store i32 0, i32* %5, align 4
  br label %31

31:                                               ; preds = %30, %25
  br label %32

32:                                               ; preds = %31
  %33 = load i32, i32* %4, align 4
  %34 = add nsw i32 %33, 1
  store i32 %34, i32* %4, align 4
  br label %18

35:                                               ; preds = %18
  store i32 2, i32* %7, align 4
  br label %36

36:                                               ; preds = %50, %35
  %37 = load i32, i32* %7, align 4
  %38 = sitofp i32 %37 to double
  %39 = load i32, i32* %6, align 4
  %40 = sitofp i32 %39 to double
  %41 = call double @sqrt(double %40) #3
  %42 = fcmp ole double %38, %41
  br i1 %42, label %43, label %53

43:                                               ; preds = %36
  %44 = load i32, i32* %6, align 4
  %45 = load i32, i32* %7, align 4
  %46 = srem i32 %44, %45
  %47 = icmp eq i32 %46, 0
  br i1 %47, label %48, label %49

48:                                               ; preds = %43
  store i32 0, i32* %5, align 4
  br label %49

49:                                               ; preds = %48, %43
  br label %50

50:                                               ; preds = %49
  %51 = load i32, i32* %7, align 4
  %52 = add nsw i32 %51, 1
  store i32 %52, i32* %7, align 4
  br label %36

53:                                               ; preds = %36
  %54 = load i32, i32* %5, align 4
  %55 = icmp ne i32 %54, 0
  br i1 %55, label %56, label %60

56:                                               ; preds = %53
  %57 = load i32, i32* %3, align 4
  %58 = load i32, i32* %6, align 4
  %59 = call i32 (i8*, ...) @printf(i8* getelementptr inbounds ([7 x i8], [7 x i8]* @.str.1, i64 0, i64 0), i32 %57, i32 %58)
  br label %60

60:                                               ; preds = %56, %53
  br label %61

61:                                               ; preds = %60
  %62 = load i32, i32* %3, align 4
  %63 = add nsw i32 %62, 2
  store i32 %63, i32* %3, align 4
  br label %9

64:                                               ; preds = %9
  %65 = load i32, i32* %1, align 4
  ret i32 %65
}

declare dso_local i32 @__isoc99_scanf(i8*, ...) #1

; Function Attrs: nounwind
declare dso_local double @sqrt(double) #2

declare dso_local i32 @printf(i8*, ...) #1


!llvm.module.flags = !{!0}
!llvm.ident = !{!1}

!0 = !{i32 1, !"wchar_size", i32 4}
!1 = !{!"clang version 10.0.0-4ubuntu1 "}
